; Function Attrs: mustprogress uwtable
define void @_ZN2cv8freetype13FreeType2Impl12loadFontDataENSt7__cxx1112basic_stringIcSt11char_traitsIcESaIcEEEi(ptr noundef nonnull align 8 dereferenceable(88) %0, ptr noundef readonly captures(none) %1, i32 noundef %2) unnamed_addr #3 align 2 personality ptr @__gxx_personality_v0 {
  %4 = alloca %struct.FT_Open_Args_, align 8
  call void @llvm.lifetime.start.p0(i64 64, ptr nonnull %4) #20
  call void @llvm.memset.p0.i64(ptr noundef nonnull align 8 dereferenceable(64) %4, i8 0, i64 64, i1 false)
  store i32 4, ptr %4, align 8, !tbaa !88
  %5 = getelementptr inbounds nuw i8, ptr %4, i64 24
  %6 = load ptr, ptr %1, align 8, !tbaa !94
  store ptr %6, ptr %5, align 8, !tbaa !97
  call void @_ZN2cv8freetype13FreeType2Impl12loadFontDataER13FT_Open_Args_i(ptr noundef nonnull align 8 dereferenceable(88) %0, ptr noundef nonnull align 8 dereferenceable(64) %4, i32 noundef %2)
  call void @llvm.lifetime.end.p0(i64 64, ptr nonnull %4) #20
  ret void
}